; Function Attrs: mustprogress uwtable
define void @_ZN7mitsuba11DummyStream5writeEPKvm(ptr noundef nonnull align 8 dereferenceable(33) %0, ptr nocapture readnone %1, i64 noundef %2) unnamed_addr #0 align 2 personality ptr @__gxx_personality_v0 {
  %4 = alloca %"class.std::__1::basic_string", align 8
  %5 = alloca %"class.std::__1::basic_string", align 8
  %6 = load ptr, ptr %0, align 8
  %7 = getelementptr inbounds i8, ptr %6, i64 80
  %8 = load ptr, ptr %7, align 8
  %9 = tail call noundef zeroext i1 %8(ptr noundef nonnull align 8 dereferenceable(33) %0)
  br i1 %9, label %10, label %22

10:                                               ; preds = %3
  %11 = load ptr, ptr @_ZN7mitsuba11DummyStream7m_classE, align 8
  %12 = load ptr, ptr %0, align 8
  %13 = getelementptr inbounds i8, ptr %12, i64 48
  %14 = load ptr, ptr %13, align 8
  call void %14(ptr dead_on_unwind nonnull writable sret(%"class.std::__1::basic_string") align 8 %5, ptr noundef nonnull align 8 dereferenceable(16) %0)
  invoke void @_ZN10tinyformat6formatIJNSt3__112basic_stringIcNS1_11char_traitsIcEENS1_9allocatorIcEEEEEEES7_PKcDpRKT_(ptr dead_on_unwind nonnull writable sret(%"class.std::__1::basic_string") align 8 %4, ptr noundef nonnull @.str.2, ptr noundef nonnull align 8 dereferenceable(24) %5)
          to label %15 unwind label %17

15:                                               ; preds = %10
  invoke void @_ZN7mitsuba6detail5ThrowENS_8LogLevelEPKNS_5ClassEPKciRKNSt3__112basic_stringIcNS7_11char_traitsIcEENS7_9allocatorIcEEEE(i32 noundef 400, ptr noundef %11, ptr noundef nonnull @.str, i32 noundef 20, ptr noundef nonnull align 8 dereferenceable(24) %4) #18
          to label %16 unwind label %19

16:                                               ; preds = %15
  unreachable

17:                                               ; preds = %10
  %18 = landingpad { ptr, i32 }
          cleanup
  br label %21

19:                                               ; preds = %15
  %20 = landingpad { ptr, i32 }
          cleanup
  call void @_ZNSt3__112basic_stringIcNS_11char_traitsIcEENS_9allocatorIcEEED1Ev(ptr noundef nonnull align 8 dereferenceable(24) %4) #19
  br label %21

21:                                               ; preds = %19, %17
  %.pn = phi { ptr, i32 } [ %20, %19 ], [ %18, %17 ]
  call void @_ZNSt3__112basic_stringIcNS_11char_traitsIcEENS_9allocatorIcEEED1Ev(ptr noundef nonnull align 8 dereferenceable(24) %5) #19
  resume { ptr, i32 } %.pn

22:                                               ; preds = %3
  %23 = getelementptr inbounds i8, ptr %0, i64 16
  %24 = getelementptr inbounds i8, ptr %0, i64 24
  %25 = load i64, ptr %24, align 8
  %26 = add i64 %25, %2
  %27 = load i64, ptr %23, align 8
  %.sroa.speculated = tail call i64 @llvm.umax.i64(i64 %27, i64 %26)
  store i64 %.sroa.speculated, ptr %23, align 8
  store i64 %26, ptr %24, align 8
  ret void
}